; Function Attrs: inlinehint mustprogress uwtable
define internal fastcc noundef nonnull align 8 dereferenceable(8) ptr @_ZN2cvlsIiEERSoS1_RKNS_5Size_IT_EE(ptr noundef nonnull align 8 dereferenceable(8) %0, ptr noundef nonnull readonly align 4 captures(none) dereferenceable(8) %1) unnamed_addr #8 {
  %3 = tail call noundef nonnull align 8 dereferenceable(8) ptr @_ZSt16__ostream_insertIcSt11char_traitsIcEERSt13basic_ostreamIT_T0_ES6_PKS3_l(ptr noundef nonnull align 8 dereferenceable(8) %0, ptr noundef nonnull @.str.30, i64 noundef 1)
  %4 = load i32, ptr %1, align 4, !tbaa !240
  %5 = tail call noundef nonnull align 8 dereferenceable(8) ptr @_ZNSolsEi(ptr noundef nonnull align 8 dereferenceable(8) %0, i32 noundef %4)
  %6 = tail call noundef nonnull align 8 dereferenceable(8) ptr @_ZSt16__ostream_insertIcSt11char_traitsIcEERSt13basic_ostreamIT_T0_ES6_PKS3_l(ptr noundef nonnull align 8 dereferenceable(8) %5, ptr noundef nonnull @.str.31, i64 noundef 3)
  %7 = getelementptr inbounds nuw i8, ptr %1, i64 4
  %8 = load i32, ptr %7, align 4, !tbaa !242
  %9 = tail call noundef nonnull align 8 dereferenceable(8) ptr @_ZNSolsEi(ptr noundef nonnull align 8 dereferenceable(8) %5, i32 noundef %8)
  %10 = tail call noundef nonnull align 8 dereferenceable(8) ptr @_ZSt16__ostream_insertIcSt11char_traitsIcEERSt13basic_ostreamIT_T0_ES6_PKS3_l(ptr noundef nonnull align 8 dereferenceable(8) %9, ptr noundef nonnull @.str.32, i64 noundef 1)
  ret ptr %9
}